target datalayout = "e-m:e-p270:32:32-p271:32:32-p272:64:64-i64:64-i128:128-f80:128-n8:16:32:64-S128"
target triple = "x86_64-pc-linux-gnu"

%"class.zmq::socks_auth_response_decoder_t" = type { [2 x i8], i64 }

@stderr = external global ptr, align 8
@.str = private unnamed_addr constant [30 x i8] c"Assertion failed: %s (%s:%d)\0A\00", align 1
@.str.1 = private unnamed_addr constant [16 x i8] c"_bytes_read < 2\00", align 1
@.str.2 = private unnamed_addr constant [105 x i8] c"generated/home/dtcxzyw/WorkSpace/Projects/compilers/llvm-opt-benchmark/bench/libzmq/libzmq/src/socks.cpp\00", align 1

; Function Attrs: mustprogress uwtable
define noundef i32 @_ZN3zmq29socks_auth_response_decoder_t5inputEi(ptr noundef nonnull align 8 dereferenceable(16) %0, i32 noundef %1) #2 align 2 {
  %3 = alloca i32, align 4
  %4 = alloca ptr, align 8
  %5 = alloca i32, align 4
  %6 = alloca i32, align 4
  %7 = alloca i32, align 4
  store ptr %0, ptr %4, align 8, !tbaa !50
  store i32 %1, ptr %5, align 4, !tbaa !22
  %8 = load ptr, ptr %4, align 8
  br label %9

9:                                                ; preds = %2
  %10 = getelementptr inbounds nuw %"class.zmq::socks_auth_response_decoder_t", ptr %8, i32 0, i32 1
  %11 = load i64, ptr %10, align 8, !tbaa !52
  %12 = icmp ult i64 %11, 2
  %13 = xor i1 %12, true
  %14 = zext i1 %13 to i64
  %15 = call i64 @llvm.expect.i64(i64 %14, i64 0)
  %16 = icmp ne i64 %15, 0
  br i1 %16, label %17, label %22

17:                                               ; preds = %9
  %18 = load ptr, ptr @stderr, align 8, !tbaa !32
  %19 = call i32 (ptr, ptr, ...) @fprintf(ptr noundef %18, ptr noundef @.str, ptr noundef @.str.1, ptr noundef @.str.2, i32 noundef 166) #14
  %20 = load ptr, ptr @stderr, align 8, !tbaa !32
  %21 = call i32 @fflush(ptr noundef %20)
  call void @_ZN3zmq9zmq_abortEPKc(ptr noundef @.str.1)
  br label %22

22:                                               ; preds = %17, %9
  br label %23

23:                                               ; preds = %22
  call void @llvm.lifetime.start.p0(i64 4, ptr %6) #14
  %24 = load i32, ptr %5, align 4, !tbaa !22
  %25 = getelementptr inbounds nuw %"class.zmq::socks_auth_response_decoder_t", ptr %8, i32 0, i32 0
  %26 = getelementptr inbounds [2 x i8], ptr %25, i64 0, i64 0
  %27 = getelementptr inbounds nuw %"class.zmq::socks_auth_response_decoder_t", ptr %8, i32 0, i32 1
  %28 = load i64, ptr %27, align 8, !tbaa !52
  %29 = getelementptr inbounds nuw i8, ptr %26, i64 %28
  %30 = getelementptr inbounds nuw %"class.zmq::socks_auth_response_decoder_t", ptr %8, i32 0, i32 1
  %31 = load i64, ptr %30, align 8, !tbaa !52
  %32 = sub i64 2, %31
  %33 = call noundef i32 @_ZN3zmq8tcp_readEiPvm(i32 noundef %24, ptr noundef %29, i64 noundef %32)
  store i32 %33, ptr %6, align 4, !tbaa !22
  %34 = load i32, ptr %6, align 4, !tbaa !22
  %35 = icmp sgt i32 %34, 0
  br i1 %35, label %36, label %49

36:                                               ; preds = %23
  %37 = load i32, ptr %6, align 4, !tbaa !22
  %38 = sext i32 %37 to i64
  %39 = getelementptr inbounds nuw %"class.zmq::socks_auth_response_decoder_t", ptr %8, i32 0, i32 1
  %40 = load i64, ptr %39, align 8, !tbaa !52
  %41 = add i64 %40, %38
  store i64 %41, ptr %39, align 8, !tbaa !52
  %42 = getelementptr inbounds nuw %"class.zmq::socks_auth_response_decoder_t", ptr %8, i32 0, i32 0
  %43 = getelementptr inbounds [2 x i8], ptr %42, i64 0, i64 0
  %44 = load i8, ptr %43, align 8, !tbaa !8
  %45 = sext i8 %44 to i32
  %46 = icmp ne i32 %45, 1
  br i1 %46, label %47, label %48

47:                                               ; preds = %36
  store i32 -1, ptr %3, align 4
  store i32 1, ptr %7, align 4
  br label %51

48:                                               ; preds = %36
  br label %49

49:                                               ; preds = %48, %23
  %50 = load i32, ptr %6, align 4, !tbaa !22
  store i32 %50, ptr %3, align 4
  store i32 1, ptr %7, align 4
  br label %51

51:                                               ; preds = %49, %47
  call void @llvm.lifetime.end.p0(i64 4, ptr %6) #14
  %52 = load i32, ptr %3, align 4
  ret i32 %52
}